target datalayout = "e-m:e-p270:32:32-p271:32:32-p272:64:64-i64:64-i128:128-f80:128-n8:16:32:64-S128"
target triple = "x86_64-pc-linux-gnu"

%"class.std::__cxx11::basic_string" = type { %"struct.std::__cxx11::basic_string<char>::_Alloc_hider", i64, %union.anon }
%"struct.std::__cxx11::basic_string<char>::_Alloc_hider" = type { ptr }
%union.anon = type { i64, [8 x i8] }
%"class.mu::ParserError" = type { %"class.std::__cxx11::basic_string", %"class.std::__cxx11::basic_string", %"class.std::__cxx11::basic_string", i32, i32, ptr }
%class.ParserTag = type { ptr, %"class.mu::ParserError", ptr, i8, i32 }

@_ZTIN2mu11ParserErrorE = linkonce_odr constant { ptr, ptr } { ptr getelementptr inbounds (ptr, ptr @_ZTVN10__cxxabiv117__class_type_infoE, i64 2), ptr @_ZTSN2mu11ParserErrorE }, comdat, align 8
@.str.7 = private unnamed_addr constant [18 x i8] c"Argument is null!\00", align 1
@_ZTISt13runtime_error = external constant ptr

; Function Attrs: inlinehint mustprogress nounwind uwtable
define linkonce_odr noundef ptr @_Z8AsParserPv(ptr noundef %0) #10 comdat {
  %2 = alloca ptr, align 8
  store ptr %0, ptr %2, align 8, !tbaa !32
  %3 = load ptr, ptr %2, align 8, !tbaa !32
  %4 = getelementptr inbounds nuw %class.ParserTag, ptr %3, i32 0, i32 0
  %5 = load ptr, ptr %4, align 8, !tbaa !47
  ret ptr %5
}

; Function Attrs: mustprogress uwtable
define ptr @mupEvalMulti(ptr noundef %0, ptr noundef %1) #6 personality ptr @__gxx_personality_v0 {
  %3 = alloca ptr, align 8
  %4 = alloca ptr, align 8
  %5 = alloca ptr, align 8
  %6 = alloca ptr, align 8
  %7 = alloca i32, align 4
  %8 = alloca ptr, align 8
  %9 = alloca ptr, align 8
  %10 = alloca %"class.mu::ParserError", align 8
  %11 = alloca ptr, align 8
  %12 = alloca ptr, align 8
  store ptr %0, ptr %4, align 8, !tbaa !32
  store ptr %1, ptr %5, align 8, !tbaa !52
  %13 = load ptr, ptr %5, align 8, !tbaa !52
  %14 = icmp eq ptr %13, null
  br i1 %14, label %15, label %26

15:                                               ; preds = %2
  %16 = call ptr @__cxa_allocate_exception(i64 16) #3
  invoke void @_ZNSt13runtime_errorC1EPKc(ptr noundef nonnull align 8 dereferenceable(16) %16, ptr noundef @.str.7)
          to label %17 unwind label %18

17:                                               ; preds = %15
  invoke void @__cxa_throw(ptr %16, ptr @_ZTISt13runtime_error, ptr @_ZNSt13runtime_errorD1Ev) #18
          to label %116 unwind label %22

18:                                               ; preds = %15
  %19 = landingpad { ptr, i32 }
          catch ptr @_ZTIN2mu11ParserErrorE
          catch ptr null
  %20 = extractvalue { ptr, i32 } %19, 0
  store ptr %20, ptr %6, align 8
  %21 = extractvalue { ptr, i32 } %19, 1
  store i32 %21, ptr %7, align 4
  call void @__cxa_free_exception(ptr %16) #3
  br label %37

22:                                               ; preds = %17
  %23 = landingpad { ptr, i32 }
          catch ptr @_ZTIN2mu11ParserErrorE
          catch ptr null
  %24 = extractvalue { ptr, i32 } %23, 0
  store ptr %24, ptr %6, align 8
  %25 = extractvalue { ptr, i32 } %23, 1
  store i32 %25, ptr %7, align 4
  br label %37

26:                                               ; preds = %2
  call void @llvm.lifetime.start.p0(i64 8, ptr %8) #3
  %27 = load ptr, ptr %4, align 8, !tbaa !32
  %28 = call noundef ptr @_Z8AsParserPv(ptr noundef %27)
  store ptr %28, ptr %8, align 8, !tbaa !33
  %29 = load ptr, ptr %8, align 8, !tbaa !33
  %30 = load ptr, ptr %5, align 8, !tbaa !52
  %31 = invoke noundef ptr @_ZNK2mu10ParserBase4EvalERi(ptr noundef nonnull align 8 dereferenceable(596) %29, ptr noundef nonnull align 4 dereferenceable(4) %30)
          to label %32 unwind label %33

32:                                               ; preds = %26
  store ptr %31, ptr %3, align 8
  call void @llvm.lifetime.end.p0(i64 8, ptr %8) #3
  br label %106

33:                                               ; preds = %26
  %34 = landingpad { ptr, i32 }
          catch ptr @_ZTIN2mu11ParserErrorE
          catch ptr null
  %35 = extractvalue { ptr, i32 } %34, 0
  store ptr %35, ptr %6, align 8
  %36 = extractvalue { ptr, i32 } %34, 1
  store i32 %36, ptr %7, align 4
  call void @llvm.lifetime.end.p0(i64 8, ptr %8) #3
  br label %37

37:                                               ; preds = %33, %22, %18
  %38 = load i32, ptr %7, align 4
  %39 = call i32 @llvm.eh.typeid.for.p0(ptr @_ZTIN2mu11ParserErrorE) #3
  %40 = icmp eq i32 %38, %39
  br i1 %40, label %41, label %62

41:                                               ; preds = %37
  call void @llvm.lifetime.start.p0(i64 8, ptr %11) #3
  %42 = load ptr, ptr %6, align 8
  %43 = call ptr @__cxa_begin_catch(ptr %42) #3
  store ptr %43, ptr %11, align 8
  call void @llvm.lifetime.start.p0(i64 8, ptr %12) #3
  %44 = load ptr, ptr %4, align 8, !tbaa !32
  store ptr %44, ptr %12, align 8, !tbaa !35
  %45 = load ptr, ptr %11, align 8, !tbaa !37
  %46 = load ptr, ptr %12, align 8, !tbaa !35
  %47 = getelementptr inbounds nuw %class.ParserTag, ptr %46, i32 0, i32 1
  %48 = invoke noundef nonnull align 8 dereferenceable(112) ptr @_ZN2mu11ParserErroraSERKS0_(ptr noundef nonnull align 8 dereferenceable(112) %47, ptr noundef nonnull align 8 dereferenceable(112) %45)
          to label %49 unwind label %99

49:                                               ; preds = %41
  %50 = load ptr, ptr %12, align 8, !tbaa !35
  %51 = getelementptr inbounds nuw %class.ParserTag, ptr %50, i32 0, i32 3
  store i8 1, ptr %51, align 8, !tbaa !39
  %52 = load ptr, ptr %12, align 8, !tbaa !35
  %53 = getelementptr inbounds nuw %class.ParserTag, ptr %52, i32 0, i32 2
  %54 = load ptr, ptr %53, align 8, !tbaa !46
  %55 = icmp ne ptr %54, null
  br i1 %55, label %56, label %103

56:                                               ; preds = %49
  %57 = load ptr, ptr %12, align 8, !tbaa !35
  %58 = getelementptr inbounds nuw %class.ParserTag, ptr %57, i32 0, i32 2
  %59 = load ptr, ptr %58, align 8, !tbaa !46
  %60 = load ptr, ptr %4, align 8, !tbaa !32
  invoke void %59(ptr noundef %60)
          to label %61 unwind label %99

61:                                               ; preds = %56
  br label %103

62:                                               ; preds = %37
  %63 = load ptr, ptr %6, align 8
  %64 = call ptr @__cxa_begin_catch(ptr %63) #3
  call void @llvm.lifetime.start.p0(i64 8, ptr %9) #3
  %65 = load ptr, ptr %4, align 8, !tbaa !32
  store ptr %65, ptr %9, align 8, !tbaa !35
  call void @llvm.lifetime.start.p0(i64 112, ptr %10) #3
  invoke void @_ZN2mu11ParserErrorC1ENS_11EErrorCodesE(ptr noundef nonnull align 8 dereferenceable(112) %10, i32 noundef 39)
          to label %66 unwind label %83

66:                                               ; preds = %62
  %67 = load ptr, ptr %9, align 8, !tbaa !35
  %68 = getelementptr inbounds nuw %class.ParserTag, ptr %67, i32 0, i32 1
  %69 = invoke noundef nonnull align 8 dereferenceable(112) ptr @_ZN2mu11ParserErroraSERKS0_(ptr noundef nonnull align 8 dereferenceable(112) %68, ptr noundef nonnull align 8 dereferenceable(112) %10)
          to label %70 unwind label %87

70:                                               ; preds = %66
  call void @_ZN2mu11ParserErrorD1Ev(ptr noundef nonnull align 8 dereferenceable(112) %10) #3
  call void @llvm.lifetime.end.p0(i64 112, ptr %10) #3
  %71 = load ptr, ptr %9, align 8, !tbaa !35
  %72 = getelementptr inbounds nuw %class.ParserTag, ptr %71, i32 0, i32 3
  store i8 1, ptr %72, align 8, !tbaa !39
  %73 = load ptr, ptr %9, align 8, !tbaa !35
  %74 = getelementptr inbounds nuw %class.ParserTag, ptr %73, i32 0, i32 2
  %75 = load ptr, ptr %74, align 8, !tbaa !46
  %76 = icmp ne ptr %75, null
  br i1 %76, label %77, label %96

77:                                               ; preds = %70
  %78 = load ptr, ptr %9, align 8, !tbaa !35
  %79 = getelementptr inbounds nuw %class.ParserTag, ptr %78, i32 0, i32 2
  %80 = load ptr, ptr %79, align 8, !tbaa !46
  %81 = load ptr, ptr %4, align 8, !tbaa !32
  invoke void %80(ptr noundef %81)
          to label %82 unwind label %92

82:                                               ; preds = %77
  br label %96

83:                                               ; preds = %62
  %84 = landingpad { ptr, i32 }
          cleanup
  %85 = extractvalue { ptr, i32 } %84, 0
  store ptr %85, ptr %6, align 8
  %86 = extractvalue { ptr, i32 } %84, 1
  store i32 %86, ptr %7, align 4
  br label %91

87:                                               ; preds = %66
  %88 = landingpad { ptr, i32 }
          cleanup
  %89 = extractvalue { ptr, i32 } %88, 0
  store ptr %89, ptr %6, align 8
  %90 = extractvalue { ptr, i32 } %88, 1
  store i32 %90, ptr %7, align 4
  call void @_ZN2mu11ParserErrorD1Ev(ptr noundef nonnull align 8 dereferenceable(112) %10) #3
  br label %91

91:                                               ; preds = %87, %83
  call void @llvm.lifetime.end.p0(i64 112, ptr %10) #3
  br label %97

92:                                               ; preds = %77
  %93 = landingpad { ptr, i32 }
          cleanup
  %94 = extractvalue { ptr, i32 } %93, 0
  store ptr %94, ptr %6, align 8
  %95 = extractvalue { ptr, i32 } %93, 1
  store i32 %95, ptr %7, align 4
  br label %97

96:                                               ; preds = %82, %70
  call void @llvm.lifetime.end.p0(i64 8, ptr %9) #3
  call void @__cxa_end_catch()
  br label %104

97:                                               ; preds = %92, %91
  call void @llvm.lifetime.end.p0(i64 8, ptr %9) #3
  invoke void @__cxa_end_catch()
          to label %98 unwind label %113

98:                                               ; preds = %97
  br label %108

99:                                               ; preds = %56, %41
  %100 = landingpad { ptr, i32 }
          cleanup
  %101 = extractvalue { ptr, i32 } %100, 0
  store ptr %101, ptr %6, align 8
  %102 = extractvalue { ptr, i32 } %100, 1
  store i32 %102, ptr %7, align 4
  call void @llvm.lifetime.end.p0(i64 8, ptr %12) #3
  invoke void @__cxa_end_catch()
          to label %105 unwind label %113

103:                                              ; preds = %61, %49
  call void @llvm.lifetime.end.p0(i64 8, ptr %12) #3
  call void @__cxa_end_catch()
  call void @llvm.lifetime.end.p0(i64 8, ptr %11) #3
  br label %104

104:                                              ; preds = %103, %96
  store ptr null, ptr %3, align 8
  br label %106

105:                                              ; preds = %99
  call void @llvm.lifetime.end.p0(i64 8, ptr %11) #3
  br label %108

106:                                              ; preds = %104, %32
  %107 = load ptr, ptr %3, align 8
  ret ptr %107

108:                                              ; preds = %105, %98
  %109 = load ptr, ptr %6, align 8
  %110 = load i32, ptr %7, align 4
  %111 = insertvalue { ptr, i32 } poison, ptr %109, 0
  %112 = insertvalue { ptr, i32 } %111, i32 %110, 1
  resume { ptr, i32 } %112

113:                                              ; preds = %99, %97
  %114 = landingpad { ptr, i32 }
          catch ptr null
  %115 = extractvalue { ptr, i32 } %114, 0
  call void @__clang_call_terminate(ptr %115) #19
  unreachable

116:                                              ; preds = %17
  unreachable
}