; Function Attrs: mustprogress uwtable
define noundef ptr @mupEvalMulti(ptr noundef %0, ptr noundef %1) local_unnamed_addr #11 personality ptr @__gxx_personality_v0 {
  %3 = alloca %"class.mu::ParserError", align 8
  %4 = icmp eq ptr %1, null
  br i1 %4, label %5, label %12

5:                                                ; preds = %2
  %6 = tail call ptr @__cxa_allocate_exception(i64 16) #23
  invoke void @_ZNSt13runtime_errorC1EPKc(ptr noundef nonnull align 8 dereferenceable(16) %6, ptr noundef nonnull @.str.7)
          to label %7 unwind label %8

7:                                                ; preds = %5
  invoke void @__cxa_throw(ptr nonnull %6, ptr nonnull @_ZTISt13runtime_error, ptr nonnull @_ZNSt13runtime_errorD1Ev) #27
          to label %55 unwind label %10

8:                                                ; preds = %5
  %9 = landingpad { ptr, i32 }
          catch ptr @_ZTIN2mu11ParserErrorE
          catch ptr null
  tail call void @__cxa_free_exception(ptr nonnull %6) #23
  br label %17

10:                                               ; preds = %7
  %11 = landingpad { ptr, i32 }
          catch ptr @_ZTIN2mu11ParserErrorE
          catch ptr null
  br label %17

12:                                               ; preds = %2
  %13 = load ptr, ptr %0, align 8, !tbaa !4
  %14 = invoke noundef ptr @_ZNK2mu10ParserBase4EvalERi(ptr noundef nonnull align 8 dereferenceable(596) %13, ptr noundef nonnull align 4 dereferenceable(4) %1)
          to label %50 unwind label %15

15:                                               ; preds = %12
  %16 = landingpad { ptr, i32 }
          catch ptr @_ZTIN2mu11ParserErrorE
          catch ptr null
  br label %17

17:                                               ; preds = %15, %10, %8
  %.pn = phi { ptr, i32 } [ %11, %10 ], [ %9, %8 ], [ %16, %15 ]
  %.022 = extractvalue { ptr, i32 } %.pn, 0
  %.023 = extractvalue { ptr, i32 } %.pn, 1
  %18 = tail call i32 @llvm.eh.typeid.for.p0(ptr nonnull @_ZTIN2mu11ParserErrorE) #23
  %19 = icmp eq i32 %.023, %18
  %20 = tail call ptr @__cxa_begin_catch(ptr %.022) #23
  br i1 %19, label %21, label %29

21:                                               ; preds = %17
  %22 = getelementptr inbounds nuw i8, ptr %0, i64 8
  %23 = invoke noundef nonnull align 8 dereferenceable(112) ptr @_ZN2mu11ParserErroraSERKS0_(ptr noundef nonnull align 8 dereferenceable(112) %22, ptr noundef nonnull align 8 dereferenceable(112) %20)
          to label %24 unwind label %47

24:                                               ; preds = %21
  %25 = getelementptr inbounds nuw i8, ptr %0, i64 128
  store i8 1, ptr %25, align 8, !tbaa !19
  %26 = getelementptr inbounds nuw i8, ptr %0, i64 120
  %27 = load ptr, ptr %26, align 8, !tbaa !20
  %.not35 = icmp eq ptr %27, null
  br i1 %.not35, label %49, label %28

28:                                               ; preds = %24
  invoke void %27(ptr noundef nonnull %0)
          to label %49 unwind label %47

29:                                               ; preds = %17
  call void @llvm.lifetime.start.p0(i64 112, ptr nonnull %3) #23
  invoke void @_ZN2mu11ParserErrorC1ENS_11EErrorCodesE(ptr noundef nonnull align 8 dereferenceable(112) %3, i32 noundef 39)
          to label %30 unwind label %38

30:                                               ; preds = %29
  %31 = getelementptr inbounds nuw i8, ptr %0, i64 8
  %32 = invoke noundef nonnull align 8 dereferenceable(112) ptr @_ZN2mu11ParserErroraSERKS0_(ptr noundef nonnull align 8 dereferenceable(112) %31, ptr noundef nonnull align 8 dereferenceable(112) %3)
          to label %33 unwind label %40

33:                                               ; preds = %30
  call void @_ZN2mu11ParserErrorD1Ev(ptr noundef nonnull align 8 dereferenceable(112) %3) #23
  call void @llvm.lifetime.end.p0(i64 112, ptr nonnull %3) #23
  %34 = getelementptr inbounds nuw i8, ptr %0, i64 128
  store i8 1, ptr %34, align 8, !tbaa !19
  %35 = getelementptr inbounds nuw i8, ptr %0, i64 120
  %36 = load ptr, ptr %35, align 8, !tbaa !20
  %.not = icmp eq ptr %36, null
  br i1 %.not, label %45, label %37

37:                                               ; preds = %33
  invoke void %36(ptr noundef nonnull %0)
          to label %45 unwind label %43

38:                                               ; preds = %29
  %39 = landingpad { ptr, i32 }
          cleanup
  br label %42

40:                                               ; preds = %30
  %41 = landingpad { ptr, i32 }
          cleanup
  call void @_ZN2mu11ParserErrorD1Ev(ptr noundef nonnull align 8 dereferenceable(112) %3) #23
  br label %42

42:                                               ; preds = %40, %38
  %.pn31 = phi { ptr, i32 } [ %41, %40 ], [ %39, %38 ]
  call void @llvm.lifetime.end.p0(i64 112, ptr nonnull %3) #23
  br label %46

43:                                               ; preds = %37
  %44 = landingpad { ptr, i32 }
          cleanup
  br label %46

45:                                               ; preds = %37, %33
  call void @__cxa_end_catch()
  br label %50

46:                                               ; preds = %43, %42
  %.pn33 = phi { ptr, i32 } [ %44, %43 ], [ %.pn31, %42 ]
  invoke void @__cxa_end_catch()
          to label %51 unwind label %52

47:                                               ; preds = %28, %21
  %48 = landingpad { ptr, i32 }
          cleanup
  invoke void @__cxa_end_catch()
          to label %51 unwind label %52

49:                                               ; preds = %28, %24
  tail call void @__cxa_end_catch()
  br label %50

50:                                               ; preds = %45, %49, %12
  %.0 = phi ptr [ %14, %12 ], [ null, %49 ], [ null, %45 ]
  ret ptr %.0

51:                                               ; preds = %47, %46
  %.pn36 = phi { ptr, i32 } [ %.pn33, %46 ], [ %48, %47 ]
  resume { ptr, i32 } %.pn36

52:                                               ; preds = %47, %46
  %53 = landingpad { ptr, i32 }
          catch ptr null
  %54 = extractvalue { ptr, i32 } %53, 0
  call void @__clang_call_terminate(ptr %54) #24
  unreachable

55:                                               ; preds = %7
  unreachable
}